; Function Attrs: nounwind uwtable
define dso_local ptr @yyjson_mut_doc_mut_copy(ptr noundef readonly captures(address_is_null) %0, ptr noundef readonly captures(address_is_null) %1) local_unnamed_addr #8 {
  %.not = icmp eq ptr %0, null
  br i1 %.not, label %yyjson_mut_doc_new.exit, label %3

3:                                                ; preds = %2
  %4 = load ptr, ptr %0, align 8, !tbaa !72
  %.not16 = icmp eq ptr %4, null
  %.not.i = icmp eq ptr %1, null
  %spec.store.select.i = select i1 %.not.i, ptr @YYJSON_DEFAULT_ALC, ptr %1
  %5 = load ptr, ptr %spec.store.select.i, align 8, !tbaa !18
  %6 = getelementptr inbounds nuw i8, ptr %spec.store.select.i, i64 24
  %7 = load ptr, ptr %6, align 8, !tbaa !22
  %8 = tail call ptr %5(ptr noundef %7, i64 noundef 120) #31
  %.not14.i = icmp eq ptr %8, null
  br i1 %.not16, label %9, label %16

9:                                                ; preds = %3
  br i1 %.not14.i, label %yyjson_mut_doc_new.exit, label %10

10:                                               ; preds = %9
  tail call void @llvm.memset.p0.i64(ptr noundef nonnull align 8 dereferenceable(120) %8, i8 0, i64 120, i1 false)
  %11 = getelementptr inbounds nuw i8, ptr %8, i64 8
  tail call void @llvm.memcpy.p0.p0.i64(ptr noundef nonnull align 8 dereferenceable(32) %11, ptr noundef nonnull align 8 dereferenceable(32) %spec.store.select.i, i64 32, i1 false), !tbaa.struct !5
  %12 = getelementptr inbounds nuw i8, ptr %8, i64 56
  store i64 256, ptr %12, align 8, !tbaa !62
  %13 = getelementptr inbounds nuw i8, ptr %8, i64 64
  store i64 268435456, ptr %13, align 8, !tbaa !67
  %14 = getelementptr inbounds nuw i8, ptr %8, i64 96
  store i64 384, ptr %14, align 8, !tbaa !64
  %15 = getelementptr inbounds nuw i8, ptr %8, i64 104
  store i64 402653184, ptr %15, align 8, !tbaa !68
  br label %yyjson_mut_doc_new.exit

16:                                               ; preds = %3
  br i1 %.not14.i, label %yyjson_mut_doc_new.exit, label %17

17:                                               ; preds = %16
  tail call void @llvm.memset.p0.i64(ptr noundef nonnull align 8 dereferenceable(120) %8, i8 0, i64 120, i1 false)
  %18 = getelementptr inbounds nuw i8, ptr %8, i64 8
  tail call void @llvm.memcpy.p0.p0.i64(ptr noundef nonnull align 8 dereferenceable(32) %18, ptr noundef nonnull align 8 dereferenceable(32) %spec.store.select.i, i64 32, i1 false), !tbaa.struct !5
  %19 = getelementptr inbounds nuw i8, ptr %8, i64 56
  store i64 256, ptr %19, align 8, !tbaa !62
  %20 = getelementptr inbounds nuw i8, ptr %8, i64 64
  store i64 268435456, ptr %20, align 8, !tbaa !67
  %21 = getelementptr inbounds nuw i8, ptr %8, i64 96
  store i64 384, ptr %21, align 8, !tbaa !64
  %22 = getelementptr inbounds nuw i8, ptr %8, i64 104
  store i64 402653184, ptr %22, align 8, !tbaa !68
  %23 = load ptr, ptr %0, align 8, !tbaa !72
  %.not26 = icmp eq ptr %23, null
  br i1 %.not26, label %yyjson_mut_val_mut_copy.exit.thread.thread, label %yyjson_mut_val_mut_copy.exit

yyjson_mut_val_mut_copy.exit.thread.thread:       ; preds = %17
  %.sroa.3.0..sroa_idx.i27 = getelementptr inbounds nuw i8, ptr %8, i64 24
  %.sroa.3.0.copyload.i28 = load ptr, ptr %.sroa.3.0..sroa_idx.i27, align 8, !tbaa !6
  %.sroa.6.0..sroa_idx.i29 = getelementptr inbounds nuw i8, ptr %8, i64 32
  %.sroa.6.0.copyload.i30 = load ptr, ptr %.sroa.6.0..sroa_idx.i29, align 8, !tbaa !6
  tail call void @llvm.memset.p0.i64(ptr noundef nonnull align 8 dereferenceable(32) %18, i8 0, i64 32, i1 false)
  br label %unsafe_yyjson_str_pool_release.exit.i

yyjson_mut_val_mut_copy.exit:                     ; preds = %17
  %24 = tail call fastcc ptr @unsafe_yyjson_mut_val_mut_copy(ptr noundef nonnull %8, ptr noundef nonnull readonly %23)
  %.not18 = icmp eq ptr %24, null
  br i1 %.not18, label %yyjson_mut_val_mut_copy.exit.thread, label %29

yyjson_mut_val_mut_copy.exit.thread:              ; preds = %yyjson_mut_val_mut_copy.exit
  %.phi.trans.insert = getelementptr inbounds nuw i8, ptr %8, i64 72
  %.pre = load ptr, ptr %.phi.trans.insert, align 8, !tbaa !44
  %.sroa.3.0..sroa_idx.i = getelementptr inbounds nuw i8, ptr %8, i64 24
  %.sroa.3.0.copyload.i = load ptr, ptr %.sroa.3.0..sroa_idx.i, align 8, !tbaa !6
  %.sroa.6.0..sroa_idx.i = getelementptr inbounds nuw i8, ptr %8, i64 32
  %.sroa.6.0.copyload.i = load ptr, ptr %.sroa.6.0..sroa_idx.i, align 8, !tbaa !6
  tail call void @llvm.memset.p0.i64(ptr noundef nonnull align 8 dereferenceable(32) %18, i8 0, i64 32, i1 false)
  %.not.i12.i = icmp eq ptr %.pre, null
  br i1 %.not.i12.i, label %unsafe_yyjson_str_pool_release.exit.i, label %.lr.ph.i

.lr.ph.i:                                         ; preds = %yyjson_mut_val_mut_copy.exit.thread, %.lr.ph.i
  %.0.i13.i = phi ptr [ %25, %.lr.ph.i ], [ %.pre, %yyjson_mut_val_mut_copy.exit.thread ]
  %25 = load ptr, ptr %.0.i13.i, align 8, !tbaa !45
  tail call void %.sroa.3.0.copyload.i(ptr noundef %.sroa.6.0.copyload.i, ptr noundef nonnull %.0.i13.i) #31
  %.not.i.i = icmp eq ptr %25, null
  br i1 %.not.i.i, label %unsafe_yyjson_str_pool_release.exit.i, label %.lr.ph.i, !llvm.loop !65

unsafe_yyjson_str_pool_release.exit.i:            ; preds = %.lr.ph.i, %yyjson_mut_val_mut_copy.exit.thread.thread, %yyjson_mut_val_mut_copy.exit.thread
  %.sroa.6.0.copyload.i33 = phi ptr [ %.sroa.6.0.copyload.i30, %yyjson_mut_val_mut_copy.exit.thread.thread ], [ %.sroa.6.0.copyload.i, %yyjson_mut_val_mut_copy.exit.thread ], [ %.sroa.6.0.copyload.i, %.lr.ph.i ]
  %.sroa.3.0.copyload.i32 = phi ptr [ %.sroa.3.0.copyload.i28, %yyjson_mut_val_mut_copy.exit.thread.thread ], [ %.sroa.3.0.copyload.i, %yyjson_mut_val_mut_copy.exit.thread ], [ %.sroa.3.0.copyload.i, %.lr.ph.i ]
  %26 = getelementptr inbounds nuw i8, ptr %8, i64 112
  %27 = load ptr, ptr %26, align 8, !tbaa !55
  %.not.i714.i = icmp eq ptr %27, null
  br i1 %.not.i714.i, label %yyjson_mut_doc_free.exit, label %.lr.ph16.i

.lr.ph16.i:                                       ; preds = %unsafe_yyjson_str_pool_release.exit.i, %.lr.ph16.i
  %.0.i615.i = phi ptr [ %28, %.lr.ph16.i ], [ %27, %unsafe_yyjson_str_pool_release.exit.i ]
  %28 = load ptr, ptr %.0.i615.i, align 8, !tbaa !56
  tail call void %.sroa.3.0.copyload.i32(ptr noundef %.sroa.6.0.copyload.i33, ptr noundef nonnull %.0.i615.i) #31
  %.not.i7.i = icmp eq ptr %28, null
  br i1 %.not.i7.i, label %yyjson_mut_doc_free.exit, label %.lr.ph16.i, !llvm.loop !66

yyjson_mut_doc_free.exit:                         ; preds = %.lr.ph16.i, %unsafe_yyjson_str_pool_release.exit.i
  tail call void %.sroa.3.0.copyload.i32(ptr noundef %.sroa.6.0.copyload.i33, ptr noundef nonnull %8) #31
  br label %yyjson_mut_doc_new.exit

29:                                               ; preds = %yyjson_mut_val_mut_copy.exit
  store ptr %24, ptr %8, align 8, !tbaa !72
  br label %yyjson_mut_doc_new.exit

yyjson_mut_doc_new.exit:                          ; preds = %16, %10, %9, %2, %29, %yyjson_mut_doc_free.exit
  %.0 = phi ptr [ %8, %29 ], [ null, %yyjson_mut_doc_free.exit ], [ null, %2 ], [ null, %9 ], [ %8, %10 ], [ null, %16 ]
  ret ptr %.0
}